; ModuleID = '22/172.c'
source_filename = "22/172.c"
target datalayout = "e-m:e-p270:32:32-p271:32:32-p272:64:64-i64:64-f80:128-n8:16:32:64-S128"
target triple = "x86_64-pc-linux-gnu"

@.str = private unnamed_addr constant [3 x i8] c"%s\00", align 1
@.str.1 = private unnamed_addr constant [3 x i8] c"%d\00", align 1
@.str.2 = private unnamed_addr constant [3 x i8] c"No\00", align 1

; Function Attrs: noinline nounwind uwtable
define dso_local void @main() #0 {
  %1 = alloca i32, align 4
  %2 = alloca i32, align 4
  %3 = alloca [300 x i32], align 16
  %4 = alloca i32, align 4
  %5 = alloca i32, align 4
  %6 = alloca i32, align 4
  %7 = alloca i32, align 4
  %8 = alloca [10000 x i8], align 16
  store i32 0, i32* %2, align 4
  %9 = bitcast [300 x i32]* %3 to i8*
  call void @llvm.memset.p0i8.i64(i8* align 16 %9, i8 0, i64 1200, i1 false)
  store i32 0, i32* %6, align 4
  %10 = getelementptr inbounds [10000 x i8], [10000 x i8]* %8, i64 0, i64 0
  %11 = call i32 (i8*, ...) @__isoc99_scanf(i8* getelementptr inbounds ([3 x i8], [3 x i8]* @.str, i64 0, i64 0), i8* %10)
  %12 = getelementptr inbounds [10000 x i8], [10000 x i8]* %8, i64 0, i64 0
  %13 = call i64 @strlen(i8* %12) #4
  %14 = trunc i64 %13 to i32
  store i32 %14, i32* %7, align 4
  store i32 0, i32* %1, align 4
  br label %15

15:                                               ; preds = %46, %0
  %16 = load i32, i32* %1, align 4
  %17 = load i32, i32* %7, align 4
  %18 = icmp slt i32 %16, %17
  br i1 %18, label %19, label %49

19:                                               ; preds = %15
  %20 = load i32, i32* %1, align 4
  %21 = sext i32 %20 to i64
  %22 = getelementptr inbounds [10000 x i8], [10000 x i8]* %8, i64 0, i64 %21
  %23 = load i8, i8* %22, align 1
  %24 = sext i8 %23 to i32
  %25 = icmp ne i32 %24, 44
  br i1 %25, label %26, label %42

26:                                               ; preds = %19
  %27 = load i32, i32* %2, align 4
  %28 = sext i32 %27 to i64
  %29 = getelementptr inbounds [300 x i32], [300 x i32]* %3, i64 0, i64 %28
  %30 = load i32, i32* %29, align 4
  %31 = mul nsw i32 %30, 10
  %32 = load i32, i32* %1, align 4
  %33 = sext i32 %32 to i64
  %34 = getelementptr inbounds [10000 x i8], [10000 x i8]* %8, i64 0, i64 %33
  %35 = load i8, i8* %34, align 1
  %36 = sext i8 %35 to i32
  %37 = add nsw i32 %31, %36
  %38 = sub nsw i32 %37, 48
  %39 = load i32, i32* %2, align 4
  %40 = sext i32 %39 to i64
  %41 = getelementptr inbounds [300 x i32], [300 x i32]* %3, i64 0, i64 %40
  store i32 %38, i32* %41, align 4
  br label %45

42:                                               ; preds = %19
  %43 = load i32, i32* %2, align 4
  %44 = add nsw i32 %43, 1
  store i32 %44, i32* %2, align 4
  br label %45

45:                                               ; preds = %42, %26
  br label %46

46:                                               ; preds = %45
  %47 = load i32, i32* %1, align 4
  %48 = add nsw i32 %47, 1
  store i32 %48, i32* %1, align 4
  br label %15

49:                                               ; preds = %15
  store i32 0, i32* %1, align 4
  br label %50

50:                                               ; preds = %95, %49
  %51 = load i32, i32* %1, align 4
  %52 = load i32, i32* %2, align 4
  %53 = icmp sle i32 %51, %52
  br i1 %53, label %54, label %98

54:                                               ; preds = %50
  store i32 0, i32* %5, align 4
  br label %55

55:                                               ; preds = %91, %54
  %56 = load i32, i32* %5, align 4
  %57 = load i32, i32* %2, align 4
  %58 = load i32, i32* %1, align 4
  %59 = sub nsw i32 %57, %58
  %60 = icmp slt i32 %56, %59
  br i1 %60, label %61, label %94

61:                                               ; preds = %55
  %62 = load i32, i32* %5, align 4
  %63 = sext i32 %62 to i64
  %64 = getelementptr inbounds [300 x i32], [300 x i32]* %3, i64 0, i64 %63
  %65 = load i32, i32* %64, align 4
  %66 = load i32, i32* %5, align 4
  %67 = add nsw i32 %66, 1
  %68 = sext i32 %67 to i64
  %69 = getelementptr inbounds [300 x i32], [300 x i32]* %3, i64 0, i64 %68
  %70 = load i32, i32* %69, align 4
  %71 = icmp slt i32 %65, %70
  br i1 %71, label %72, label %90

72:                                               ; preds = %61
  %73 = load i32, i32* %5, align 4
  %74 = sext i32 %73 to i64
  %75 = getelementptr inbounds [300 x i32], [300 x i32]* %3, i64 0, i64 %74
  %76 = load i32, i32* %75, align 4
  store i32 %76, i32* %4, align 4
  %77 = load i32, i32* %5, align 4
  %78 = add nsw i32 %77, 1
  %79 = sext i32 %78 to i64
  %80 = getelementptr inbounds [300 x i32], [300 x i32]* %3, i64 0, i64 %79
  %81 = load i32, i32* %80, align 4
  %82 = load i32, i32* %5, align 4
  %83 = sext i32 %82 to i64
  %84 = getelementptr inbounds [300 x i32], [300 x i32]* %3, i64 0, i64 %83
  store i32 %81, i32* %84, align 4
  %85 = load i32, i32* %4, align 4
  %86 = load i32, i32* %5, align 4
  %87 = add nsw i32 %86, 1
  %88 = sext i32 %87 to i64
  %89 = getelementptr inbounds [300 x i32], [300 x i32]* %3, i64 0, i64 %88
  store i32 %85, i32* %89, align 4
  br label %90

90:                                               ; preds = %72, %61
  br label %91

91:                                               ; preds = %90
  %92 = load i32, i32* %5, align 4
  %93 = add nsw i32 %92, 1
  store i32 %93, i32* %5, align 4
  br label %55

94:                                               ; preds = %55
  br label %95

95:                                               ; preds = %94
  %96 = load i32, i32* %1, align 4
  %97 = add nsw i32 %96, 1
  store i32 %97, i32* %1, align 4
  br label %50

98:                                               ; preds = %50
  store i32 0, i32* %1, align 4
  br label %99

99:                                               ; preds = %120, %98
  %100 = load i32, i32* %1, align 4
  %101 = load i32, i32* %2, align 4
  %102 = icmp sle i32 %100, %101
  br i1 %102, label %103, label %123

103:                                              ; preds = %99
  %104 = load i32, i32* %1, align 4
  %105 = sext i32 %104 to i64
  %106 = getelementptr inbounds [300 x i32], [300 x i32]* %3, i64 0, i64 %105
  %107 = load i32, i32* %106, align 4
  %108 = getelementptr inbounds [300 x i32], [300 x i32]* %3, i64 0, i64 0
  %109 = load i32, i32* %108, align 16
  %110 = icmp ne i32 %107, %109
  br i1 %110, label %111, label %119

111:                                              ; preds = %103
  %112 = load i32, i32* %1, align 4
  %113 = sext i32 %112 to i64
  %114 = getelementptr inbounds [300 x i32], [300 x i32]* %3, i64 0, i64 %113
  %115 = load i32, i32* %114, align 4
  %116 = call i32 (i8*, ...) @printf(i8* getelementptr inbounds ([3 x i8], [3 x i8]* @.str.1, i64 0, i64 0), i32 %115)
  %117 = load i32, i32* %6, align 4
  %118 = add nsw i32 %117, 1
  store i32 %118, i32* %6, align 4
  br label %123

119:                                              ; preds = %103
  br label %120

120:                                              ; preds = %119
  %121 = load i32, i32* %1, align 4
  %122 = add nsw i32 %121, 1
  store i32 %122, i32* %1, align 4
  br label %99

123:                                              ; preds = %111, %99
  %124 = load i32, i32* %6, align 4
  %125 = icmp eq i32 %124, 0
  br i1 %125, label %126, label %128

126:                                              ; preds = %123
  %127 = call i32 (i8*, ...) @printf(i8* getelementptr inbounds ([3 x i8], [3 x i8]* @.str.2, i64 0, i64 0))
  br label %128

128:                                              ; preds = %126, %123
  ret void
}

; Function Attrs: argmemonly nounwind willreturn
declare void @llvm.memset.p0i8.i64(i8* nocapture writeonly, i8, i64, i1 immarg) #1

declare dso_local i32 @__isoc99_scanf(i8*, ...) #2

; Function Attrs: nounwind readonly
declare dso_local i64 @strlen(i8*) #3

declare dso_local i32 @printf(i8*, ...) #2


!llvm.module.flags = !{!0}
!llvm.ident = !{!1}

!0 = !{i32 1, !"wchar_size", i32 4}
!1 = !{!"clang version 10.0.0-4ubuntu1 "}
